target datalayout = "e-m:e-p270:32:32-p271:32:32-p272:64:64-i64:64-i128:128-f80:128-n8:16:32:64-S128"
target triple = "x86_64-pc-linux-gnu"

%struct.sockaddr_un = type { i16, [108 x i8] }
%struct.unix_sockaddr_context = type { ptr }
%union.__CONST_SOCKADDR_ARG = type { ptr }
%struct.unix_stream_listen_opts = type { i32, i8 }

@.str = private unnamed_addr constant [45 x i8] c"unable to restore original working directory\00", align 1

; Function Attrs: nounwind uwtable
define internal void @unix_sockaddr_cleanup(ptr noundef %0) #0 {
  %2 = alloca ptr, align 8
  store ptr %0, ptr %2, align 8, !tbaa !14
  %3 = load ptr, ptr %2, align 8, !tbaa !14
  %4 = getelementptr inbounds nuw %struct.unix_sockaddr_context, ptr %3, i32 0, i32 0
  %5 = load ptr, ptr %4, align 8, !tbaa !16
  %6 = icmp ne ptr %5, null
  br i1 %6, label %8, label %7

7:                                                ; preds = %1
  br label %19

8:                                                ; preds = %1
  %9 = load ptr, ptr %2, align 8, !tbaa !14
  %10 = getelementptr inbounds nuw %struct.unix_sockaddr_context, ptr %9, i32 0, i32 0
  %11 = load ptr, ptr %10, align 8, !tbaa !16
  %12 = call i32 @chdir(ptr noundef %11) #10
  %13 = icmp slt i32 %12, 0
  br i1 %13, label %14, label %15

14:                                               ; preds = %8
  call void (ptr, ...) @die(ptr noundef @.str) #13
  unreachable

15:                                               ; preds = %8
  %16 = load ptr, ptr %2, align 8, !tbaa !14
  %17 = getelementptr inbounds nuw %struct.unix_sockaddr_context, ptr %16, i32 0, i32 0
  %18 = load ptr, ptr %17, align 8, !tbaa !16
  call void @free(ptr noundef %18) #10
  br label %19

19:                                               ; preds = %15, %7
  ret void
}

; Function Attrs: nounwind uwtable
define dso_local i32 @unix_stream_listen(ptr noundef %0, ptr noundef %1) #0 {
  %3 = alloca i32, align 4
  %4 = alloca ptr, align 8
  %5 = alloca ptr, align 8
  %6 = alloca i32, align 4
  %7 = alloca i32, align 4
  %8 = alloca i32, align 4
  %9 = alloca %struct.sockaddr_un, align 2
  %10 = alloca %struct.unix_sockaddr_context, align 8
  %11 = alloca i32, align 4
  %12 = alloca %union.__CONST_SOCKADDR_ARG, align 8
  store ptr %0, ptr %4, align 8, !tbaa !4
  store ptr %1, ptr %5, align 8, !tbaa !21
  call void @llvm.lifetime.start.p0(i64 4, ptr %6) #10
  store i32 -1, ptr %6, align 4, !tbaa !9
  call void @llvm.lifetime.start.p0(i64 4, ptr %7) #10
  call void @llvm.lifetime.start.p0(i64 4, ptr %8) #10
  call void @llvm.lifetime.start.p0(i64 110, ptr %9) #10
  call void @llvm.lifetime.start.p0(i64 8, ptr %10) #10
  %13 = load ptr, ptr %4, align 8, !tbaa !4
  %14 = call i32 @unlink(ptr noundef %13) #10
  %15 = load ptr, ptr %4, align 8, !tbaa !4
  %16 = load ptr, ptr %5, align 8, !tbaa !21
  %17 = getelementptr inbounds nuw %struct.unix_stream_listen_opts, ptr %16, i32 0, i32 1
  %18 = load i8, ptr %17, align 4
  %19 = and i8 %18, 1
  %20 = zext i8 %19 to i32
  %21 = call i32 @unix_sockaddr_init(ptr noundef %9, ptr noundef %15, ptr noundef %10, i32 noundef %20)
  %22 = icmp slt i32 %21, 0
  br i1 %22, label %23, label %24

23:                                               ; preds = %2
  store i32 -1, ptr %3, align 4
  store i32 1, ptr %11, align 4
  br label %62

24:                                               ; preds = %2
  %25 = call i32 @socket(i32 noundef 1, i32 noundef 1, i32 noundef 0) #10
  store i32 %25, ptr %6, align 4, !tbaa !9
  %26 = load i32, ptr %6, align 4, !tbaa !9
  %27 = icmp slt i32 %26, 0
  br i1 %27, label %28, label %29

28:                                               ; preds = %24
  br label %51

29:                                               ; preds = %24
  %30 = load i32, ptr %6, align 4, !tbaa !9
  store ptr %9, ptr %12, align 8, !tbaa !11
  %31 = getelementptr inbounds nuw %union.__CONST_SOCKADDR_ARG, ptr %12, i32 0, i32 0
  %32 = load ptr, ptr %31, align 8
  %33 = call i32 @bind(i32 noundef %30, ptr %32, i32 noundef 110) #10
  %34 = icmp slt i32 %33, 0
  br i1 %34, label %35, label %36

35:                                               ; preds = %29
  br label %51

36:                                               ; preds = %29
  %37 = load ptr, ptr %5, align 8, !tbaa !21
  %38 = getelementptr inbounds nuw %struct.unix_stream_listen_opts, ptr %37, i32 0, i32 0
  %39 = load i32, ptr %38, align 4, !tbaa !23
  store i32 %39, ptr %8, align 4, !tbaa !9
  %40 = load i32, ptr %8, align 4, !tbaa !9
  %41 = icmp sle i32 %40, 0
  br i1 %41, label %42, label %43

42:                                               ; preds = %36
  store i32 5, ptr %8, align 4, !tbaa !9
  br label %43

43:                                               ; preds = %42, %36
  %44 = load i32, ptr %6, align 4, !tbaa !9
  %45 = load i32, ptr %8, align 4, !tbaa !9
  %46 = call i32 @listen(i32 noundef %44, i32 noundef %45) #10
  %47 = icmp slt i32 %46, 0
  br i1 %47, label %48, label %49

48:                                               ; preds = %43
  br label %51

49:                                               ; preds = %43
  call void @unix_sockaddr_cleanup(ptr noundef %10)
  %50 = load i32, ptr %6, align 4, !tbaa !9
  store i32 %50, ptr %3, align 4
  store i32 1, ptr %11, align 4
  br label %62

51:                                               ; preds = %48, %35, %28
  %52 = call ptr @__errno_location() #11
  %53 = load i32, ptr %52, align 4, !tbaa !9
  store i32 %53, ptr %7, align 4, !tbaa !9
  %54 = load i32, ptr %6, align 4, !tbaa !9
  %55 = icmp ne i32 %54, -1
  br i1 %55, label %56, label %59

56:                                               ; preds = %51
  %57 = load i32, ptr %6, align 4, !tbaa !9
  %58 = call i32 @close(i32 noundef %57)
  br label %59

59:                                               ; preds = %56, %51
  call void @unix_sockaddr_cleanup(ptr noundef %10)
  %60 = load i32, ptr %7, align 4, !tbaa !9
  %61 = call ptr @__errno_location() #11
  store i32 %60, ptr %61, align 4, !tbaa !9
  store i32 -1, ptr %3, align 4
  store i32 1, ptr %11, align 4
  br label %62

62:                                               ; preds = %59, %49, %23
  call void @llvm.lifetime.end.p0(i64 8, ptr %10) #10
  call void @llvm.lifetime.end.p0(i64 110, ptr %9) #10
  call void @llvm.lifetime.end.p0(i64 4, ptr %8) #10
  call void @llvm.lifetime.end.p0(i64 4, ptr %7) #10
  call void @llvm.lifetime.end.p0(i64 4, ptr %6) #10
  %63 = load i32, ptr %3, align 4
  ret i32 %63
}