; Function Attrs: nounwind uwtable
define dso_local range(i32 -1, -2147483648) i32 @unix_stream_listen(ptr noundef %0, ptr noundef readonly captures(none) %1) local_unnamed_addr #0 {
  %3 = alloca %struct.sockaddr_un, align 2
  %4 = alloca %struct.unix_sockaddr_context, align 8
  call void @llvm.lifetime.start.p0(i64 110, ptr nonnull %3) #11
  call void @llvm.lifetime.start.p0(i64 8, ptr nonnull %4) #11
  %5 = tail call i32 @unlink(ptr noundef %0) #11
  %6 = getelementptr inbounds nuw i8, ptr %1, i64 4
  %7 = load i8, ptr %6, align 4
  %8 = and i8 %7, 1
  %9 = zext nneg i8 %8 to i32
  %10 = call fastcc i32 @unix_sockaddr_init(ptr noundef %3, ptr noundef %0, ptr noundef %4, i32 noundef %9)
  %11 = icmp slt i32 %10, 0
  br i1 %11, label %unix_sockaddr_cleanup.exit, label %12

12:                                               ; preds = %2
  %13 = tail call i32 @socket(i32 noundef 1, i32 noundef 1, i32 noundef 0) #11
  %14 = icmp slt i32 %13, 0
  br i1 %14, label %31, label %15

15:                                               ; preds = %12
  %16 = call i32 @bind(i32 noundef %13, ptr nonnull %3, i32 noundef 110) #11
  %17 = icmp slt i32 %16, 0
  br i1 %17, label %.thread, label %18

18:                                               ; preds = %15
  %19 = load i32, ptr %1, align 4, !tbaa !15
  %20 = icmp slt i32 %19, 1
  %spec.store.select = select i1 %20, i32 5, i32 %19
  %21 = call i32 @listen(i32 noundef %13, i32 noundef %spec.store.select) #11
  %22 = icmp slt i32 %21, 0
  br i1 %22, label %.thread, label %23

23:                                               ; preds = %18
  %.val14 = load ptr, ptr %4, align 8, !tbaa !8
  %.not.i = icmp eq ptr %.val14, null
  br i1 %.not.i, label %unix_sockaddr_cleanup.exit, label %24

24:                                               ; preds = %23
  %25 = call i32 @chdir(ptr noundef nonnull %.val14) #11
  %26 = icmp slt i32 %25, 0
  br i1 %26, label %27, label %28

27:                                               ; preds = %24
  call void (ptr, ...) @die(ptr noundef nonnull @.str) #13
  unreachable

28:                                               ; preds = %24
  call void @free(ptr noundef nonnull %.val14) #11
  br label %unix_sockaddr_cleanup.exit

.thread:                                          ; preds = %18, %15
  %29 = tail call ptr @__errno_location() #12
  %30 = load i32, ptr %29, align 4, !tbaa !4
  br label %34

31:                                               ; preds = %12
  %32 = tail call ptr @__errno_location() #12
  %33 = load i32, ptr %32, align 4, !tbaa !4
  %.not = icmp eq i32 %13, -1
  br i1 %.not, label %38, label %34

34:                                               ; preds = %.thread, %31
  %35 = phi i32 [ %30, %.thread ], [ %33, %31 ]
  %36 = phi ptr [ %29, %.thread ], [ %32, %31 ]
  %37 = call i32 @close(i32 noundef %13) #11
  br label %38

38:                                               ; preds = %34, %31
  %39 = phi i32 [ %35, %34 ], [ %33, %31 ]
  %40 = phi ptr [ %36, %34 ], [ %32, %31 ]
  %.val = load ptr, ptr %4, align 8, !tbaa !8
  %.not.i15 = icmp eq ptr %.val, null
  br i1 %.not.i15, label %unix_sockaddr_cleanup.exit16, label %41

41:                                               ; preds = %38
  %42 = call i32 @chdir(ptr noundef nonnull %.val) #11
  %43 = icmp slt i32 %42, 0
  br i1 %43, label %44, label %45

44:                                               ; preds = %41
  call void (ptr, ...) @die(ptr noundef nonnull @.str) #13
  unreachable

45:                                               ; preds = %41
  call void @free(ptr noundef nonnull %.val) #11
  br label %unix_sockaddr_cleanup.exit16

unix_sockaddr_cleanup.exit16:                     ; preds = %38, %45
  store i32 %39, ptr %40, align 4, !tbaa !4
  br label %unix_sockaddr_cleanup.exit

unix_sockaddr_cleanup.exit:                       ; preds = %28, %23, %2, %unix_sockaddr_cleanup.exit16
  %.0 = phi i32 [ -1, %unix_sockaddr_cleanup.exit16 ], [ -1, %2 ], [ %13, %23 ], [ %13, %28 ]
  call void @llvm.lifetime.end.p0(i64 8, ptr nonnull %4) #11
  call void @llvm.lifetime.end.p0(i64 110, ptr nonnull %3) #11
  ret i32 %.0
}